target datalayout = "e-m:e-p270:32:32-p271:32:32-p272:64:64-i64:64-i128:128-f80:128-n8:16:32:64-S128"
target triple = "x86_64-pc-linux-gnu"

; Function Attrs: mustprogress null_pointer_is_valid sspstrong uwtable
define noundef ptr @_ZN10TrafficTab20dataModelForTabIndexEi(ptr noundef align 8 dereferenceable_or_null(130) %0, i32 noundef %1) #2 align 2 {
  %3 = alloca ptr, align 8
  %4 = alloca i32, align 4
  store ptr %0, ptr %3, align 8
  store i32 %1, ptr %4, align 4
  %5 = load ptr, ptr %3, align 8
  %6 = load i32, ptr %4, align 4
  %7 = icmp eq i32 %6, -1
  br i1 %7, label %8, label %10

8:                                                ; preds = %2
  %9 = call noundef i32 @_ZNK10QTabWidget12currentIndexEv(ptr noundef align 8 dereferenceable_or_null(40) %5)
  store i32 %9, ptr %4, align 4
  br label %10

10:                                               ; preds = %8, %2
  %11 = load i32, ptr %4, align 4
  %12 = call noundef ptr @_ZNK10QTabWidget6widgetEi(ptr noundef align 8 dereferenceable_or_null(40) %5, i32 noundef %11)
  %13 = call noundef ptr @_ZN10TrafficTab18dataModelForWidgetEP7QWidget(ptr noundef align 8 dereferenceable_or_null(130) %5, ptr noundef %12)
  ret ptr %13
}

; Function Attrs: mustprogress null_pointer_is_valid sspstrong uwtable
define void @_ZN10TrafficTab20limitToDisplayFilterEb(ptr noundef align 8 dereferenceable_or_null(130) %0, i1 noundef zeroext %1) #2 align 2 {
  %3 = alloca ptr, align 8
  %4 = alloca i8, align 1
  %5 = alloca i32, align 4
  %6 = alloca ptr, align 8
  store ptr %0, ptr %3, align 8
  %7 = zext i1 %1 to i8
  store i8 %7, ptr %4, align 1
  %8 = load ptr, ptr %3, align 8
  call void @llvm.lifetime.start.p0(i64 4, ptr %5) #16
  store i32 0, ptr %5, align 4
  br label %9

9:                                                ; preds = %24, %2
  %10 = load i32, ptr %5, align 4
  %11 = call noundef i32 @_ZNK10QTabWidget5countEv(ptr noundef align 8 dereferenceable_or_null(40) %8)
  %12 = icmp slt i32 %10, %11
  br i1 %12, label %14, label %13

13:                                               ; preds = %9
  call void @llvm.lifetime.end.p0(i64 4, ptr %5) #16
  br label %27

14:                                               ; preds = %9
  call void @llvm.lifetime.start.p0(i64 8, ptr %6) #16
  %15 = load i32, ptr %5, align 4
  %16 = call noundef ptr @_ZN10TrafficTab20dataModelForTabIndexEi(ptr noundef align 8 dereferenceable_or_null(130) %8, i32 noundef %15)
  store ptr %16, ptr %6, align 8
  %17 = load ptr, ptr %6, align 8
  %18 = icmp ne ptr %17, null
  br i1 %18, label %19, label %23

19:                                               ; preds = %14
  %20 = load ptr, ptr %6, align 8
  %21 = load i8, ptr %4, align 1, !range !11, !noundef !12
  %22 = trunc i8 %21 to i1
  call void @_ZN13ATapDataModel20limitToDisplayFilterEb(ptr noundef align 8 dereferenceable_or_null(120) %20, i1 noundef zeroext %22)
  br label %23

23:                                               ; preds = %19, %14
  call void @llvm.lifetime.end.p0(i64 8, ptr %6) #16
  br label %24

24:                                               ; preds = %23
  %25 = load i32, ptr %5, align 4
  %26 = add i32 %25, 1
  store i32 %26, ptr %5, align 4
  br label %9, !llvm.loop !15

27:                                               ; preds = %13
  ret void
}