; Function Attrs: mustprogress null_pointer_is_valid sspstrong uwtable
define void @_ZN10TrafficTab20limitToDisplayFilterEb(ptr noundef align 8 dereferenceable_or_null(130) %0, i1 noundef zeroext %1) local_unnamed_addr #3 align 2 {
  %3 = tail call noundef i32 @_ZNK10QTabWidget5countEv(ptr noundef align 8 dereferenceable_or_null(40) %0)
  %4 = icmp sgt i32 %3, 0
  br i1 %4, label %_ZN10TrafficTab20dataModelForTabIndexEi.exit, label %._crit_edge

._crit_edge:                                      ; preds = %8, %2
  ret void

_ZN10TrafficTab20dataModelForTabIndexEi.exit:     ; preds = %2, %8
  %.07 = phi i32 [ %9, %8 ], [ 0, %2 ]
  %5 = tail call noundef ptr @_ZNK10QTabWidget6widgetEi(ptr noundef align 8 dereferenceable_or_null(130) %0, i32 noundef %.07)
  %6 = tail call noundef ptr @_ZN10TrafficTab18dataModelForWidgetEP7QWidget(ptr align 8 poison, ptr noundef %5)
  %.not = icmp eq ptr %6, null
  br i1 %.not, label %8, label %7

7:                                                ; preds = %_ZN10TrafficTab20dataModelForTabIndexEi.exit
  tail call void @_ZN13ATapDataModel20limitToDisplayFilterEb(ptr noundef nonnull align 8 dereferenceable_or_null(120) %6, i1 noundef zeroext %1)
  br label %8

8:                                                ; preds = %7, %_ZN10TrafficTab20dataModelForTabIndexEi.exit
  %9 = add nuw nsw i32 %.07, 1
  %10 = tail call noundef i32 @_ZNK10QTabWidget5countEv(ptr noundef align 8 dereferenceable_or_null(40) %0)
  %11 = icmp slt i32 %9, %10
  br i1 %11, label %_ZN10TrafficTab20dataModelForTabIndexEi.exit, label %._crit_edge, !llvm.loop !72
}